target datalayout = "e-m:e-p270:32:32-p271:32:32-p272:64:64-i64:64-i128:128-f80:128-n8:16:32:64-S128"
target triple = "x86_64-pc-linux-gnu"

%struct.SparseMatrix_struct = type { i32, i32, i32, i32, i32, ptr, ptr, ptr, i32, i8, i64 }

@Verbose = external global i8, align 1
@stderr = external global ptr, align 8
@.str.5 = private unnamed_addr constant [53 x i8] c"cpu time for spectral ordering (before greedy) = %f\0A\00", align 1
@.str.6 = private unnamed_addr constant [37 x i8] c"cpu time for greedy refinement = %f\0A\00", align 1
@.str.7 = private unnamed_addr constant [37 x i8] c"cpu time for spectral + greedy = %f\0A\00", align 1

; Function Attrs: nounwind uwtable
define internal void @get_12_norm(i32 noundef %0, ptr noundef %1, ptr noundef %2, ptr noundef %3, ptr noundef %4) #0 {
  %6 = alloca i32, align 4
  %7 = alloca ptr, align 8
  %8 = alloca ptr, align 8
  %9 = alloca ptr, align 8
  %10 = alloca ptr, align 8
  %11 = alloca i32, align 4
  %12 = alloca i32, align 4
  %13 = alloca i32, align 4
  %14 = alloca double, align 8
  store i32 %0, ptr %6, align 4, !tbaa !13
  store ptr %1, ptr %7, align 8, !tbaa !9
  store ptr %2, ptr %8, align 8, !tbaa !9
  store ptr %3, ptr %9, align 8, !tbaa !9
  store ptr %4, ptr %10, align 8, !tbaa !32
  call void @llvm.lifetime.start.p0(i64 4, ptr %11) #5
  call void @llvm.lifetime.start.p0(i64 4, ptr %12) #5
  call void @llvm.lifetime.start.p0(i64 4, ptr %13) #5
  store i32 0, ptr %13, align 4, !tbaa !13
  call void @llvm.lifetime.start.p0(i64 8, ptr %14) #5
  %15 = load i32, ptr %6, align 4, !tbaa !13
  %16 = sitofp i32 %15 to double
  %17 = load ptr, ptr %10, align 8, !tbaa !32
  %18 = getelementptr inbounds double, ptr %17, i64 0
  store double %16, ptr %18, align 8, !tbaa !26
  %19 = load ptr, ptr %10, align 8, !tbaa !32
  %20 = getelementptr inbounds double, ptr %19, i64 1
  store double 0.000000e+00, ptr %20, align 8, !tbaa !26
  %21 = load ptr, ptr %10, align 8, !tbaa !32
  %22 = getelementptr inbounds double, ptr %21, i64 2
  store double 0.000000e+00, ptr %22, align 8, !tbaa !26
  store i32 0, ptr %11, align 4, !tbaa !13
  br label %23

23:                                               ; preds = %128, %5
  %24 = load i32, ptr %11, align 4, !tbaa !13
  %25 = load i32, ptr %6, align 4, !tbaa !13
  %26 = icmp slt i32 %24, %25
  br i1 %26, label %27, label %131

27:                                               ; preds = %23
  %28 = load i32, ptr %6, align 4, !tbaa !13
  %29 = sitofp i32 %28 to double
  store double %29, ptr %14, align 8, !tbaa !26
  %30 = load ptr, ptr %7, align 8, !tbaa !9
  %31 = load i32, ptr %11, align 4, !tbaa !13
  %32 = sext i32 %31 to i64
  %33 = getelementptr inbounds i32, ptr %30, i64 %32
  %34 = load i32, ptr %33, align 4, !tbaa !13
  store i32 %34, ptr %12, align 4, !tbaa !13
  br label %35

35:                                               ; preds = %119, %27
  %36 = load i32, ptr %12, align 4, !tbaa !13
  %37 = load ptr, ptr %7, align 8, !tbaa !9
  %38 = load i32, ptr %11, align 4, !tbaa !13
  %39 = add nsw i32 %38, 1
  %40 = sext i32 %39 to i64
  %41 = getelementptr inbounds i32, ptr %37, i64 %40
  %42 = load i32, ptr %41, align 4, !tbaa !13
  %43 = icmp slt i32 %36, %42
  br i1 %43, label %44, label %122

44:                                               ; preds = %35
  %45 = load ptr, ptr %8, align 8, !tbaa !9
  %46 = load i32, ptr %12, align 4, !tbaa !13
  %47 = sext i32 %46 to i64
  %48 = getelementptr inbounds i32, ptr %45, i64 %47
  %49 = load i32, ptr %48, align 4, !tbaa !13
  %50 = load i32, ptr %11, align 4, !tbaa !13
  %51 = icmp eq i32 %49, %50
  br i1 %51, label %52, label %53

52:                                               ; preds = %44
  br label %119

53:                                               ; preds = %44
  %54 = load ptr, ptr %10, align 8, !tbaa !32
  %55 = getelementptr inbounds double, ptr %54, i64 0
  %56 = load double, ptr %55, align 8, !tbaa !26
  %57 = load ptr, ptr %9, align 8, !tbaa !9
  %58 = load i32, ptr %11, align 4, !tbaa !13
  %59 = sext i32 %58 to i64
  %60 = getelementptr inbounds i32, ptr %57, i64 %59
  %61 = load i32, ptr %60, align 4, !tbaa !13
  %62 = load ptr, ptr %9, align 8, !tbaa !9
  %63 = load ptr, ptr %8, align 8, !tbaa !9
  %64 = load i32, ptr %12, align 4, !tbaa !13
  %65 = sext i32 %64 to i64
  %66 = getelementptr inbounds i32, ptr %63, i64 %65
  %67 = load i32, ptr %66, align 4, !tbaa !13
  %68 = sext i32 %67 to i64
  %69 = getelementptr inbounds i32, ptr %62, i64 %68
  %70 = load i32, ptr %69, align 4, !tbaa !13
  %71 = sub nsw i32 %61, %70
  %72 = call i32 @llvm.abs.i32(i32 %71, i1 true)
  %73 = sitofp i32 %72 to double
  %74 = call double @llvm.minnum.f64(double %56, double %73)
  %75 = load ptr, ptr %10, align 8, !tbaa !32
  %76 = getelementptr inbounds double, ptr %75, i64 0
  store double %74, ptr %76, align 8, !tbaa !26
  %77 = load ptr, ptr %9, align 8, !tbaa !9
  %78 = load i32, ptr %11, align 4, !tbaa !13
  %79 = sext i32 %78 to i64
  %80 = getelementptr inbounds i32, ptr %77, i64 %79
  %81 = load i32, ptr %80, align 4, !tbaa !13
  %82 = load ptr, ptr %9, align 8, !tbaa !9
  %83 = load ptr, ptr %8, align 8, !tbaa !9
  %84 = load i32, ptr %12, align 4, !tbaa !13
  %85 = sext i32 %84 to i64
  %86 = getelementptr inbounds i32, ptr %83, i64 %85
  %87 = load i32, ptr %86, align 4, !tbaa !13
  %88 = sext i32 %87 to i64
  %89 = getelementptr inbounds i32, ptr %82, i64 %88
  %90 = load i32, ptr %89, align 4, !tbaa !13
  %91 = sub nsw i32 %81, %90
  %92 = call i32 @llvm.abs.i32(i32 %91, i1 true)
  %93 = sitofp i32 %92 to double
  %94 = load ptr, ptr %10, align 8, !tbaa !32
  %95 = getelementptr inbounds double, ptr %94, i64 1
  %96 = load double, ptr %95, align 8, !tbaa !26
  %97 = fadd double %96, %93
  store double %97, ptr %95, align 8, !tbaa !26
  %98 = load double, ptr %14, align 8, !tbaa !26
  %99 = load ptr, ptr %9, align 8, !tbaa !9
  %100 = load i32, ptr %11, align 4, !tbaa !13
  %101 = sext i32 %100 to i64
  %102 = getelementptr inbounds i32, ptr %99, i64 %101
  %103 = load i32, ptr %102, align 4, !tbaa !13
  %104 = load ptr, ptr %9, align 8, !tbaa !9
  %105 = load ptr, ptr %8, align 8, !tbaa !9
  %106 = load i32, ptr %12, align 4, !tbaa !13
  %107 = sext i32 %106 to i64
  %108 = getelementptr inbounds i32, ptr %105, i64 %107
  %109 = load i32, ptr %108, align 4, !tbaa !13
  %110 = sext i32 %109 to i64
  %111 = getelementptr inbounds i32, ptr %104, i64 %110
  %112 = load i32, ptr %111, align 4, !tbaa !13
  %113 = sub nsw i32 %103, %112
  %114 = call i32 @llvm.abs.i32(i32 %113, i1 true)
  %115 = sitofp i32 %114 to double
  %116 = call double @llvm.minnum.f64(double %98, double %115)
  store double %116, ptr %14, align 8, !tbaa !26
  %117 = load i32, ptr %13, align 4, !tbaa !13
  %118 = add nsw i32 %117, 1
  store i32 %118, ptr %13, align 4, !tbaa !13
  br label %119

119:                                              ; preds = %53, %52
  %120 = load i32, ptr %12, align 4, !tbaa !13
  %121 = add nsw i32 %120, 1
  store i32 %121, ptr %12, align 4, !tbaa !13
  br label %35, !llvm.loop !35

122:                                              ; preds = %35
  %123 = load double, ptr %14, align 8, !tbaa !26
  %124 = load ptr, ptr %10, align 8, !tbaa !32
  %125 = getelementptr inbounds double, ptr %124, i64 2
  %126 = load double, ptr %125, align 8, !tbaa !26
  %127 = fadd double %126, %123
  store double %127, ptr %125, align 8, !tbaa !26
  br label %128

128:                                              ; preds = %122
  %129 = load i32, ptr %11, align 4, !tbaa !13
  %130 = add nsw i32 %129, 1
  store i32 %130, ptr %11, align 4, !tbaa !13
  br label %23, !llvm.loop !36

131:                                              ; preds = %23
  %132 = load i32, ptr %6, align 4, !tbaa !13
  %133 = sitofp i32 %132 to double
  %134 = load ptr, ptr %10, align 8, !tbaa !32
  %135 = getelementptr inbounds double, ptr %134, i64 2
  %136 = load double, ptr %135, align 8, !tbaa !26
  %137 = fdiv double %136, %133
  store double %137, ptr %135, align 8, !tbaa !26
  %138 = load i32, ptr %13, align 4, !tbaa !13
  %139 = sitofp i32 %138 to double
  %140 = load ptr, ptr %10, align 8, !tbaa !32
  %141 = getelementptr inbounds double, ptr %140, i64 1
  %142 = load double, ptr %141, align 8, !tbaa !26
  %143 = fdiv double %142, %139
  store double %143, ptr %141, align 8, !tbaa !26
  call void @llvm.lifetime.end.p0(i64 8, ptr %14) #5
  call void @llvm.lifetime.end.p0(i64 4, ptr %13) #5
  call void @llvm.lifetime.end.p0(i64 4, ptr %12) #5
  call void @llvm.lifetime.end.p0(i64 4, ptr %11) #5
  ret void
}

; Function Attrs: nounwind uwtable
define dso_local void @country_graph_coloring(i32 noundef %0, ptr noundef %1, ptr noundef %2) #0 {
  %4 = alloca i32, align 4
  %5 = alloca ptr, align 8
  %6 = alloca ptr, align 8
  %7 = alloca i32, align 4
  %8 = alloca i32, align 4
  %9 = alloca i32, align 4
  %10 = alloca i32, align 4
  %11 = alloca ptr, align 8
  %12 = alloca ptr, align 8
  %13 = alloca ptr, align 8
  %14 = alloca ptr, align 8
  %15 = alloca i32, align 4
  %16 = alloca double, align 8
  %17 = alloca [3 x double], align 16
  %18 = alloca i64, align 8
  %19 = alloca i64, align 8
  %20 = alloca ptr, align 8
  %21 = alloca ptr, align 8
  store i32 %0, ptr %4, align 4, !tbaa !13
  store ptr %1, ptr %5, align 8, !tbaa !4
  store ptr %2, ptr %6, align 8, !tbaa !37
  call void @llvm.lifetime.start.p0(i64 4, ptr %7) #5
  %22 = load ptr, ptr %5, align 8, !tbaa !4
  %23 = getelementptr inbounds nuw %struct.SparseMatrix_struct, ptr %22, i32 0, i32 0
  %24 = load i32, ptr %23, align 8, !tbaa !15
  store i32 %24, ptr %7, align 4, !tbaa !13
  call void @llvm.lifetime.start.p0(i64 4, ptr %8) #5
  call void @llvm.lifetime.start.p0(i64 4, ptr %9) #5
  call void @llvm.lifetime.start.p0(i64 4, ptr %10) #5
  call void @llvm.lifetime.start.p0(i64 8, ptr %11) #5
  call void @llvm.lifetime.start.p0(i64 8, ptr %12) #5
  call void @llvm.lifetime.start.p0(i64 8, ptr %13) #5
  %25 = load ptr, ptr %5, align 8, !tbaa !4
  %26 = getelementptr inbounds nuw %struct.SparseMatrix_struct, ptr %25, i32 0, i32 5
  %27 = load ptr, ptr %26, align 8, !tbaa !18
  store ptr %27, ptr %13, align 8, !tbaa !9
  call void @llvm.lifetime.start.p0(i64 8, ptr %14) #5
  %28 = load ptr, ptr %5, align 8, !tbaa !4
  %29 = getelementptr inbounds nuw %struct.SparseMatrix_struct, ptr %28, i32 0, i32 6
  %30 = load ptr, ptr %29, align 8, !tbaa !19
  store ptr %30, ptr %14, align 8, !tbaa !9
  call void @llvm.lifetime.start.p0(i64 4, ptr %15) #5
  store i32 -1, ptr %15, align 4, !tbaa !13
  call void @llvm.lifetime.start.p0(i64 8, ptr %16) #5
  call void @llvm.lifetime.start.p0(i64 24, ptr %17) #5
  call void @llvm.lifetime.start.p0(i64 8, ptr %18) #5
  call void @llvm.lifetime.start.p0(i64 8, ptr %19) #5
  %31 = call i64 @clock() #5
  store i64 %31, ptr %18, align 8, !tbaa !20
  %32 = load ptr, ptr %5, align 8, !tbaa !4
  %33 = call ptr @SparseMatrix_symmetrize(ptr noundef %32, i1 noundef zeroext true)
  store ptr %33, ptr %12, align 8, !tbaa !4
  %34 = load ptr, ptr %12, align 8, !tbaa !4
  %35 = getelementptr inbounds nuw %struct.SparseMatrix_struct, ptr %34, i32 0, i32 5
  %36 = load ptr, ptr %35, align 8, !tbaa !18
  store ptr %36, ptr %13, align 8, !tbaa !9
  %37 = load ptr, ptr %12, align 8, !tbaa !4
  %38 = getelementptr inbounds nuw %struct.SparseMatrix_struct, ptr %37, i32 0, i32 6
  %39 = load ptr, ptr %38, align 8, !tbaa !19
  store ptr %39, ptr %14, align 8, !tbaa !9
  %40 = load i32, ptr %7, align 4, !tbaa !13
  %41 = load i32, ptr %7, align 4, !tbaa !13
  %42 = call ptr @SparseMatrix_new(i32 noundef %40, i32 noundef %41, i32 noundef 1, i32 noundef 1, i32 noundef 1)
  store ptr %42, ptr %11, align 8, !tbaa !4
  store i32 0, ptr %8, align 4, !tbaa !13
  br label %43

43:                                               ; preds = %87, %3
  %44 = load i32, ptr %8, align 4, !tbaa !13
  %45 = load i32, ptr %7, align 4, !tbaa !13
  %46 = icmp slt i32 %44, %45
  br i1 %46, label %47, label %90

47:                                               ; preds = %43
  store double 0.000000e+00, ptr %16, align 8, !tbaa !26
  %48 = load ptr, ptr %13, align 8, !tbaa !9
  %49 = load i32, ptr %8, align 4, !tbaa !13
  %50 = sext i32 %49 to i64
  %51 = getelementptr inbounds i32, ptr %48, i64 %50
  %52 = load i32, ptr %51, align 4, !tbaa !13
  store i32 %52, ptr %9, align 4, !tbaa !13
  br label %53

53:                                               ; preds = %79, %47
  %54 = load i32, ptr %9, align 4, !tbaa !13
  %55 = load ptr, ptr %13, align 8, !tbaa !9
  %56 = load i32, ptr %8, align 4, !tbaa !13
  %57 = add nsw i32 %56, 1
  %58 = sext i32 %57 to i64
  %59 = getelementptr inbounds i32, ptr %55, i64 %58
  %60 = load i32, ptr %59, align 4, !tbaa !13
  %61 = icmp slt i32 %54, %60
  br i1 %61, label %62, label %82

62:                                               ; preds = %53
  %63 = load ptr, ptr %14, align 8, !tbaa !9
  %64 = load i32, ptr %9, align 4, !tbaa !13
  %65 = sext i32 %64 to i64
  %66 = getelementptr inbounds i32, ptr %63, i64 %65
  %67 = load i32, ptr %66, align 4, !tbaa !13
  store i32 %67, ptr %10, align 4, !tbaa !13
  %68 = load i32, ptr %10, align 4, !tbaa !13
  %69 = load i32, ptr %8, align 4, !tbaa !13
  %70 = icmp ne i32 %68, %69
  br i1 %70, label %71, label %78

71:                                               ; preds = %62
  %72 = load double, ptr %16, align 8, !tbaa !26
  %73 = fadd double %72, 1.000000e+00
  store double %73, ptr %16, align 8, !tbaa !26
  %74 = load ptr, ptr %11, align 8, !tbaa !4
  %75 = load i32, ptr %8, align 4, !tbaa !13
  %76 = load i32, ptr %10, align 4, !tbaa !13
  %77 = call ptr @SparseMatrix_coordinate_form_add_entry(ptr noundef %74, i32 noundef %75, i32 noundef %76, ptr noundef %15)
  store ptr %77, ptr %11, align 8, !tbaa !4
  br label %78

78:                                               ; preds = %71, %62
  br label %79

79:                                               ; preds = %78
  %80 = load i32, ptr %9, align 4, !tbaa !13
  %81 = add nsw i32 %80, 1
  store i32 %81, ptr %9, align 4, !tbaa !13
  br label %53, !llvm.loop !39

82:                                               ; preds = %53
  %83 = load ptr, ptr %11, align 8, !tbaa !4
  %84 = load i32, ptr %8, align 4, !tbaa !13
  %85 = load i32, ptr %8, align 4, !tbaa !13
  %86 = call ptr @SparseMatrix_coordinate_form_add_entry(ptr noundef %83, i32 noundef %84, i32 noundef %85, ptr noundef %16)
  store ptr %86, ptr %11, align 8, !tbaa !4
  br label %87

87:                                               ; preds = %82
  %88 = load i32, ptr %8, align 4, !tbaa !13
  %89 = add nsw i32 %88, 1
  store i32 %89, ptr %8, align 4, !tbaa !13
  br label %43, !llvm.loop !40

90:                                               ; preds = %43
  call void @llvm.lifetime.start.p0(i64 8, ptr %20) #5
  %91 = load ptr, ptr %11, align 8, !tbaa !4
  %92 = call ptr @SparseMatrix_from_coordinate_format(ptr noundef %91)
  store ptr %92, ptr %20, align 8, !tbaa !4
  %93 = load ptr, ptr %11, align 8, !tbaa !4
  call void @SparseMatrix_delete(ptr noundef %93)
  %94 = load ptr, ptr %20, align 8, !tbaa !4
  store ptr %94, ptr %11, align 8, !tbaa !4
  call void @llvm.lifetime.end.p0(i64 8, ptr %20) #5
  call void @llvm.lifetime.start.p0(i64 8, ptr %21) #5
  %95 = load ptr, ptr %11, align 8, !tbaa !4
  %96 = load ptr, ptr %11, align 8, !tbaa !4
  %97 = getelementptr inbounds nuw %struct.SparseMatrix_struct, ptr %96, i32 0, i32 1
  %98 = load i32, ptr %97, align 4, !tbaa !41
  %99 = load i32, ptr %4, align 4, !tbaa !13
  %100 = call ptr @power_method(ptr noundef %95, i32 noundef %98, i32 noundef %99)
  store ptr %100, ptr %21, align 8, !tbaa !32
  %101 = load i32, ptr %7, align 4, !tbaa !13
  %102 = load ptr, ptr %21, align 8, !tbaa !32
  %103 = load ptr, ptr %6, align 8, !tbaa !37
  call void @vector_ordering(i32 noundef %101, ptr noundef %102, ptr noundef %103)
  %104 = load i8, ptr @Verbose, align 1, !tbaa !23
  %105 = icmp ne i8 %104, 0
  br i1 %105, label %106, label %114

106:                                              ; preds = %90
  %107 = load ptr, ptr @stderr, align 8, !tbaa !21
  %108 = call i64 @clock() #5
  %109 = load i64, ptr %18, align 8, !tbaa !20
  %110 = sub nsw i64 %108, %109
  %111 = sitofp i64 %110 to double
  %112 = fdiv double %111, 1.000000e+06
  %113 = call i32 (ptr, ptr, ...) @fprintf(ptr noundef %107, ptr noundef @.str.5, double noundef %112) #5
  br label %114

114:                                              ; preds = %106, %90
  %115 = call i64 @clock() #5
  store i64 %115, ptr %19, align 8, !tbaa !20
  %116 = load ptr, ptr %12, align 8, !tbaa !4
  %117 = load ptr, ptr %6, align 8, !tbaa !37
  %118 = load ptr, ptr %117, align 8, !tbaa !9
  call void @improve_antibandwidth_by_swapping(ptr noundef %116, ptr noundef %118)
  %119 = load i8, ptr @Verbose, align 1, !tbaa !23
  %120 = icmp ne i8 %119, 0
  br i1 %120, label %121, label %136

121:                                              ; preds = %114
  %122 = load ptr, ptr @stderr, align 8, !tbaa !21
  %123 = call i64 @clock() #5
  %124 = load i64, ptr %19, align 8, !tbaa !20
  %125 = sub nsw i64 %123, %124
  %126 = sitofp i64 %125 to double
  %127 = fdiv double %126, 1.000000e+06
  %128 = call i32 (ptr, ptr, ...) @fprintf(ptr noundef %122, ptr noundef @.str.6, double noundef %127) #5
  %129 = load ptr, ptr @stderr, align 8, !tbaa !21
  %130 = call i64 @clock() #5
  %131 = load i64, ptr %18, align 8, !tbaa !20
  %132 = sub nsw i64 %130, %131
  %133 = sitofp i64 %132 to double
  %134 = fdiv double %133, 1.000000e+06
  %135 = call i32 (ptr, ptr, ...) @fprintf(ptr noundef %129, ptr noundef @.str.7, double noundef %134) #5
  br label %136

136:                                              ; preds = %121, %114
  %137 = load i32, ptr %7, align 4, !tbaa !13
  %138 = load ptr, ptr %13, align 8, !tbaa !9
  %139 = load ptr, ptr %14, align 8, !tbaa !9
  %140 = load ptr, ptr %6, align 8, !tbaa !37
  %141 = load ptr, ptr %140, align 8, !tbaa !9
  %142 = getelementptr inbounds [3 x double], ptr %17, i64 0, i64 0
  call void @get_12_norm(i32 noundef %137, ptr noundef %138, ptr noundef %139, ptr noundef %141, ptr noundef %142)
  %143 = load ptr, ptr %12, align 8, !tbaa !4
  %144 = load ptr, ptr %5, align 8, !tbaa !4
  %145 = icmp ne ptr %143, %144
  br i1 %145, label %146, label %148

146:                                              ; preds = %136
  %147 = load ptr, ptr %12, align 8, !tbaa !4
  call void @SparseMatrix_delete(ptr noundef %147)
  br label %148

148:                                              ; preds = %146, %136
  %149 = load ptr, ptr %11, align 8, !tbaa !4
  call void @SparseMatrix_delete(ptr noundef %149)
  call void @llvm.lifetime.end.p0(i64 8, ptr %21) #5
  call void @llvm.lifetime.end.p0(i64 8, ptr %19) #5
  call void @llvm.lifetime.end.p0(i64 8, ptr %18) #5
  call void @llvm.lifetime.end.p0(i64 24, ptr %17) #5
  call void @llvm.lifetime.end.p0(i64 8, ptr %16) #5
  call void @llvm.lifetime.end.p0(i64 4, ptr %15) #5
  call void @llvm.lifetime.end.p0(i64 8, ptr %14) #5
  call void @llvm.lifetime.end.p0(i64 8, ptr %13) #5
  call void @llvm.lifetime.end.p0(i64 8, ptr %12) #5
  call void @llvm.lifetime.end.p0(i64 8, ptr %11) #5
  call void @llvm.lifetime.end.p0(i64 4, ptr %10) #5
  call void @llvm.lifetime.end.p0(i64 4, ptr %9) #5
  call void @llvm.lifetime.end.p0(i64 4, ptr %8) #5
  call void @llvm.lifetime.end.p0(i64 4, ptr %7) #5
  ret void
}