; Function Attrs: nounwind uwtable
define dso_local void @country_graph_coloring(i32 noundef %0, ptr noundef %1, ptr noundef %2) local_unnamed_addr #0 {
  %4 = alloca i32, align 4
  %5 = alloca double, align 8
  %6 = load i32, ptr %1, align 8, !tbaa !4
  call void @llvm.lifetime.start.p0(i64 4, ptr nonnull %4) #7
  store i32 -1, ptr %4, align 4, !tbaa !18
  call void @llvm.lifetime.start.p0(i64 8, ptr nonnull %5) #7
  %7 = tail call i64 @clock() #7
  %8 = tail call ptr @SparseMatrix_symmetrize(ptr noundef nonnull %1, i1 noundef zeroext true) #7
  %9 = getelementptr inbounds nuw i8, ptr %8, i64 24
  %10 = load ptr, ptr %9, align 8, !tbaa !13
  %11 = getelementptr inbounds nuw i8, ptr %8, i64 32
  %12 = load ptr, ptr %11, align 8, !tbaa !14
  %13 = tail call ptr @SparseMatrix_new(i32 noundef %6, i32 noundef %6, i32 noundef 1, i32 noundef 1, i32 noundef 1) #7
  %14 = icmp sgt i32 %6, 0
  br i1 %14, label %.lr.ph64.preheader, label %._crit_edge65

.lr.ph64.preheader:                               ; preds = %3
  %wide.trip.count = zext nneg i32 %6 to i64
  br label %.lr.ph64

.lr.ph64:                                         ; preds = %.lr.ph64.preheader, %._crit_edge
  %indvars.iv70 = phi i64 [ 0, %.lr.ph64.preheader ], [ %indvars.iv.next71, %._crit_edge ]
  %.04961 = phi ptr [ %13, %.lr.ph64.preheader ], [ %35, %._crit_edge ]
  store double 0.000000e+00, ptr %5, align 8, !tbaa !26
  %15 = getelementptr inbounds nuw i32, ptr %10, i64 %indvars.iv70
  %16 = load i32, ptr %15, align 4, !tbaa !18
  %indvars.iv.next71 = add nuw nsw i64 %indvars.iv70, 1
  %17 = getelementptr inbounds nuw i32, ptr %10, i64 %indvars.iv.next71
  %18 = load i32, ptr %17, align 4, !tbaa !18
  %19 = icmp slt i32 %16, %18
  br i1 %19, label %.lr.ph.preheader, label %._crit_edge

.lr.ph.preheader:                                 ; preds = %.lr.ph64
  %20 = sext i32 %16 to i64
  %21 = trunc nuw nsw i64 %indvars.iv70 to i32
  br label %.lr.ph

.lr.ph:                                           ; preds = %.lr.ph.preheader, %30
  %22 = phi i32 [ %18, %.lr.ph.preheader ], [ %31, %30 ]
  %indvars.iv = phi i64 [ %20, %.lr.ph.preheader ], [ %indvars.iv.next, %30 ]
  %.158 = phi ptr [ %.04961, %.lr.ph.preheader ], [ %.2, %30 ]
  %23 = getelementptr inbounds i32, ptr %12, i64 %indvars.iv
  %24 = load i32, ptr %23, align 4, !tbaa !18
  %25 = zext i32 %24 to i64
  %.not55 = icmp eq i64 %indvars.iv70, %25
  br i1 %.not55, label %30, label %26

26:                                               ; preds = %.lr.ph
  %27 = load double, ptr %5, align 8, !tbaa !26
  %28 = fadd double %27, 1.000000e+00
  store double %28, ptr %5, align 8, !tbaa !26
  %29 = call ptr @SparseMatrix_coordinate_form_add_entry(ptr noundef %.158, i32 noundef %21, i32 noundef %24, ptr noundef nonnull %4) #7
  %.pre = load i32, ptr %17, align 4, !tbaa !18
  br label %30

30:                                               ; preds = %.lr.ph, %26
  %31 = phi i32 [ %.pre, %26 ], [ %22, %.lr.ph ]
  %.2 = phi ptr [ %29, %26 ], [ %.158, %.lr.ph ]
  %indvars.iv.next = add nsw i64 %indvars.iv, 1
  %32 = sext i32 %31 to i64
  %33 = icmp slt i64 %indvars.iv.next, %32
  br i1 %33, label %.lr.ph, label %._crit_edge, !llvm.loop !28

._crit_edge:                                      ; preds = %30, %.lr.ph64
  %.1.lcssa = phi ptr [ %.04961, %.lr.ph64 ], [ %.2, %30 ]
  %34 = trunc nuw nsw i64 %indvars.iv70 to i32
  %35 = call ptr @SparseMatrix_coordinate_form_add_entry(ptr noundef %.1.lcssa, i32 noundef %34, i32 noundef %34, ptr noundef nonnull %5) #7
  %exitcond.not = icmp eq i64 %indvars.iv.next71, %wide.trip.count
  br i1 %exitcond.not, label %._crit_edge65, label %.lr.ph64, !llvm.loop !29

._crit_edge65:                                    ; preds = %._crit_edge, %3
  %.049.lcssa = phi ptr [ %13, %3 ], [ %35, %._crit_edge ]
  %36 = call ptr @SparseMatrix_from_coordinate_format(ptr noundef %.049.lcssa) #7
  call void @SparseMatrix_delete(ptr noundef %.049.lcssa) #7
  %37 = getelementptr inbounds nuw i8, ptr %36, i64 4
  %38 = load i32, ptr %37, align 4, !tbaa !30
  %39 = call ptr @power_method(ptr noundef %36, i32 noundef %38, i32 noundef %0) #7
  call void @vector_ordering(i32 noundef %6, ptr noundef %39, ptr noundef %2) #7
  %40 = load i8, ptr @Verbose, align 1, !tbaa !15
  %.not = icmp eq i8 %40, 0
  br i1 %.not, label %48, label %41

41:                                               ; preds = %._crit_edge65
  %42 = load ptr, ptr @stderr, align 8, !tbaa !16
  %43 = call i64 @clock() #7
  %44 = sub nsw i64 %43, %7
  %45 = sitofp i64 %44 to double
  %46 = fdiv double %45, 1.000000e+06
  %47 = call i32 (ptr, ptr, ...) @fprintf(ptr noundef %42, ptr noundef nonnull @.str.5, double noundef %46) #9
  br label %48

48:                                               ; preds = %41, %._crit_edge65
  %49 = call i64 @clock() #7
  %50 = load ptr, ptr %2, align 8, !tbaa !31
  call void @improve_antibandwidth_by_swapping(ptr noundef %8, ptr noundef %50)
  %51 = load i8, ptr @Verbose, align 1, !tbaa !15
  %.not53 = icmp eq i8 %51, 0
  br i1 %.not53, label %get_12_norm.exit, label %52

52:                                               ; preds = %48
  %53 = load ptr, ptr @stderr, align 8, !tbaa !16
  %54 = call i64 @clock() #7
  %55 = sub nsw i64 %54, %49
  %56 = sitofp i64 %55 to double
  %57 = fdiv double %56, 1.000000e+06
  %58 = call i32 (ptr, ptr, ...) @fprintf(ptr noundef %53, ptr noundef nonnull @.str.6, double noundef %57) #9
  %59 = load ptr, ptr @stderr, align 8, !tbaa !16
  %60 = call i64 @clock() #7
  %61 = sub nsw i64 %60, %7
  %62 = sitofp i64 %61 to double
  %63 = fdiv double %62, 1.000000e+06
  %64 = call i32 (ptr, ptr, ...) @fprintf(ptr noundef %59, ptr noundef nonnull @.str.7, double noundef %63) #9
  br label %get_12_norm.exit

get_12_norm.exit:                                 ; preds = %48, %52
  %.not54 = icmp eq ptr %8, %1
  br i1 %.not54, label %66, label %65

65:                                               ; preds = %get_12_norm.exit
  call void @SparseMatrix_delete(ptr noundef %8) #7
  br label %66

66:                                               ; preds = %65, %get_12_norm.exit
  call void @SparseMatrix_delete(ptr noundef nonnull %36) #7
  call void @llvm.lifetime.end.p0(i64 8, ptr nonnull %5) #7
  call void @llvm.lifetime.end.p0(i64 4, ptr nonnull %4) #7
  ret void
}